target datalayout = "e-m:e-p270:32:32-p271:32:32-p272:64:64-i64:64-i128:128-f80:128-n8:16:32:64-S128"
target triple = "x86_64-pc-linux-gnu"

%"class.std::__cxx11::basic_string" = type { %"struct.std::__cxx11::basic_string<char>::_Alloc_hider", i64, %union.anon }
%"struct.std::__cxx11::basic_string<char>::_Alloc_hider" = type { ptr }
%union.anon = type { i64, [8 x i8] }
%"struct.std::_Vector_base.24" = type { %"struct.std::_Vector_base<aiVertexWeight, std::allocator<aiVertexWeight>>::_Vector_impl" }
%"struct.std::_Vector_base<aiVertexWeight, std::allocator<aiVertexWeight>>::_Vector_impl" = type { %"struct.std::_Vector_base<aiVertexWeight, std::allocator<aiVertexWeight>>::_Vector_impl_data" }
%"struct.std::_Vector_base<aiVertexWeight, std::allocator<aiVertexWeight>>::_Vector_impl_data" = type { ptr, ptr, ptr }
%struct.aiVertexWeight = type { i32, float }
%struct.aiString = type { i32, [1024 x i8] }
%class.aiMatrix4x4t = type { float, float, float, float, float, float, float, float, float, float, float, float, float, float, float, float }
%class.aiVector3t = type { float, float, float }
%"class.Assimp::Ogre::Bone" = type { i16, %"class.std::__cxx11::basic_string", ptr, i32, %"class.std::vector.87", %class.aiVector3t, %class.aiQuaterniont, %class.aiVector3t, %class.aiMatrix4x4t, %class.aiMatrix4x4t }
%"class.std::vector.87" = type { %"struct.std::_Vector_base.88" }
%"struct.std::_Vector_base.88" = type { %"struct.std::_Vector_base<unsigned short, std::allocator<unsigned short>>::_Vector_impl" }
%"struct.std::_Vector_base<unsigned short, std::allocator<unsigned short>>::_Vector_impl" = type { %"struct.std::_Vector_base<unsigned short, std::allocator<unsigned short>>::_Vector_impl_data" }
%"struct.std::_Vector_base<unsigned short, std::allocator<unsigned short>>::_Vector_impl_data" = type { ptr, ptr, ptr }
%class.aiQuaterniont = type { float, float, float, float }
%struct.aiBone = type { %struct.aiString, i32, ptr, ptr, ptr, %class.aiMatrix4x4t }
%"class.__gnu_cxx::__normal_iterator.186" = type { ptr }

; Function Attrs: noinline noreturn nounwind uwtable
define linkonce_odr hidden void @__clang_call_terminate(ptr noundef %0) #5 comdat {
  %2 = call ptr @__cxa_begin_catch(ptr %0) #20
  call void @_ZSt9terminatev() #22
  unreachable
}

; Function Attrs: mustprogress nounwind uwtable
define available_externally noundef ptr @_ZNKSt7__cxx1112basic_stringIcSt11char_traitsIcESaIcEE7_M_dataEv(ptr noundef nonnull align 8 dereferenceable(32) %0) #0 align 2 {
  %2 = alloca ptr, align 8
  store ptr %0, ptr %2, align 8
  %3 = load ptr, ptr %2, align 8
  %4 = getelementptr inbounds nuw %"class.std::__cxx11::basic_string", ptr %3, i32 0, i32 0
  %5 = getelementptr inbounds nuw %"struct.std::__cxx11::basic_string<char>::_Alloc_hider", ptr %4, i32 0, i32 0
  %6 = load ptr, ptr %5, align 8
  ret ptr %6
}

; Function Attrs: mustprogress nounwind uwtable
define linkonce_odr hidden noundef nonnull align 8 dereferenceable(8) ptr @_ZNK9__gnu_cxx17__normal_iteratorIPK14aiVertexWeightSt6vectorIS1_SaIS1_EEE4baseEv(ptr noundef nonnull align 8 dereferenceable(8) %0) #0 comdat align 2 {
  %2 = alloca ptr, align 8
  store ptr %0, ptr %2, align 8
  %3 = load ptr, ptr %2, align 8
  %4 = getelementptr inbounds nuw %"class.__gnu_cxx::__normal_iterator.186", ptr %3, i32 0, i32 0
  ret ptr %4
}

; Function Attrs: mustprogress nounwind uwtable
define linkonce_odr hidden void @_ZN9__gnu_cxx17__normal_iteratorIPK14aiVertexWeightSt6vectorIS1_SaIS1_EEEC2ERKS3_(ptr noundef nonnull align 8 dereferenceable(8) %0, ptr noundef nonnull align 8 dereferenceable(8) %1) unnamed_addr #0 comdat align 2 {
  %3 = alloca ptr, align 8
  %4 = alloca ptr, align 8
  store ptr %0, ptr %3, align 8
  store ptr %1, ptr %4, align 8
  %5 = load ptr, ptr %3, align 8
  %6 = getelementptr inbounds nuw %"class.__gnu_cxx::__normal_iterator.186", ptr %5, i32 0, i32 0
  %7 = load ptr, ptr %4, align 8
  %8 = load ptr, ptr %7, align 8
  store ptr %8, ptr %6, align 8
  ret void
}

; Function Attrs: mustprogress nounwind uwtable
define available_externally noundef ptr @_ZNKSt7__cxx1112basic_stringIcSt11char_traitsIcESaIcEE5c_strEv(ptr noundef nonnull align 8 dereferenceable(32) %0) #0 align 2 personality ptr @__gxx_personality_v0 {
  %2 = alloca ptr, align 8
  store ptr %0, ptr %2, align 8
  %3 = load ptr, ptr %2, align 8
  %4 = invoke noundef ptr @_ZNKSt7__cxx1112basic_stringIcSt11char_traitsIcESaIcEE7_M_dataEv(ptr noundef nonnull align 8 dereferenceable(32) %3)
          to label %5 unwind label %6

5:                                                ; preds = %1
  ret ptr %4

6:                                                ; preds = %1
  %7 = landingpad { ptr, i32 }
          catch ptr null
  %8 = extractvalue { ptr, i32 } %7, 0
  call void @__clang_call_terminate(ptr %8) #22
  unreachable
}

; Function Attrs: mustprogress nounwind uwtable
define available_externally noundef i64 @_ZNKSt7__cxx1112basic_stringIcSt11char_traitsIcESaIcEE6lengthEv(ptr noundef nonnull align 8 dereferenceable(32) %0) #0 align 2 {
  %2 = alloca ptr, align 8
  store ptr %0, ptr %2, align 8
  %3 = load ptr, ptr %2, align 8
  %4 = getelementptr inbounds nuw %"class.std::__cxx11::basic_string", ptr %3, i32 0, i32 1
  %5 = load i64, ptr %4, align 8
  ret i64 %5
}

; Function Attrs: inlinehint mustprogress nounwind uwtable
define linkonce_odr hidden noundef zeroext i1 @_ZN9__gnu_cxxeqIPK14aiVertexWeightSt6vectorIS1_SaIS1_EEEEbRKNS_17__normal_iteratorIT_T0_EESC_(ptr noundef nonnull align 8 dereferenceable(8) %0, ptr noundef nonnull align 8 dereferenceable(8) %1) #3 comdat {
  %3 = alloca ptr, align 8
  %4 = alloca ptr, align 8
  store ptr %0, ptr %3, align 8
  store ptr %1, ptr %4, align 8
  %5 = load ptr, ptr %3, align 8
  %6 = call noundef nonnull align 8 dereferenceable(8) ptr @_ZNK9__gnu_cxx17__normal_iteratorIPK14aiVertexWeightSt6vectorIS1_SaIS1_EEE4baseEv(ptr noundef nonnull align 8 dereferenceable(8) %5) #20
  %7 = load ptr, ptr %6, align 8
  %8 = load ptr, ptr %4, align 8
  %9 = call noundef nonnull align 8 dereferenceable(8) ptr @_ZNK9__gnu_cxx17__normal_iteratorIPK14aiVertexWeightSt6vectorIS1_SaIS1_EEE4baseEv(ptr noundef nonnull align 8 dereferenceable(8) %8) #20
  %10 = load ptr, ptr %9, align 8
  %11 = icmp eq ptr %7, %10
  ret i1 %11
}

; Function Attrs: mustprogress nounwind uwtable
define linkonce_odr hidden ptr @_ZNKSt6vectorI14aiVertexWeightSaIS0_EE3endEv(ptr noundef nonnull align 8 dereferenceable(24) %0) #0 comdat align 2 {
  %2 = alloca %"class.__gnu_cxx::__normal_iterator.186", align 8
  %3 = alloca ptr, align 8
  store ptr %0, ptr %3, align 8
  %4 = load ptr, ptr %3, align 8
  %5 = getelementptr inbounds nuw %"struct.std::_Vector_base.24", ptr %4, i32 0, i32 0
  %6 = getelementptr inbounds nuw %"struct.std::_Vector_base<aiVertexWeight, std::allocator<aiVertexWeight>>::_Vector_impl_data", ptr %5, i32 0, i32 1
  call void @_ZN9__gnu_cxx17__normal_iteratorIPK14aiVertexWeightSt6vectorIS1_SaIS1_EEEC2ERKS3_(ptr noundef nonnull align 8 dereferenceable(8) %2, ptr noundef nonnull align 8 dereferenceable(8) %6) #20
  %7 = getelementptr inbounds nuw %"class.__gnu_cxx::__normal_iterator.186", ptr %2, i32 0, i32 0
  %8 = load ptr, ptr %7, align 8
  ret ptr %8
}

; Function Attrs: mustprogress nounwind uwtable
define linkonce_odr hidden ptr @_ZNKSt6vectorI14aiVertexWeightSaIS0_EE5beginEv(ptr noundef nonnull align 8 dereferenceable(24) %0) #0 comdat align 2 {
  %2 = alloca %"class.__gnu_cxx::__normal_iterator.186", align 8
  %3 = alloca ptr, align 8
  store ptr %0, ptr %3, align 8
  %4 = load ptr, ptr %3, align 8
  %5 = getelementptr inbounds nuw %"struct.std::_Vector_base.24", ptr %4, i32 0, i32 0
  %6 = getelementptr inbounds nuw %"struct.std::_Vector_base<aiVertexWeight, std::allocator<aiVertexWeight>>::_Vector_impl_data", ptr %5, i32 0, i32 0
  call void @_ZN9__gnu_cxx17__normal_iteratorIPK14aiVertexWeightSt6vectorIS1_SaIS1_EEEC2ERKS3_(ptr noundef nonnull align 8 dereferenceable(8) %2, ptr noundef nonnull align 8 dereferenceable(8) %6) #20
  %7 = getelementptr inbounds nuw %"class.__gnu_cxx::__normal_iterator.186", ptr %2, i32 0, i32 0
  %8 = load ptr, ptr %7, align 8
  ret ptr %8
}

; Function Attrs: mustprogress nounwind uwtable
define linkonce_odr hidden void @_ZN8aiString3SetERKNSt7__cxx1112basic_stringIcSt11char_traitsIcESaIcEEE(ptr noundef nonnull align 4 dereferenceable(1028) %0, ptr noundef nonnull align 8 dereferenceable(32) %1) #0 comdat align 2 {
  %3 = alloca ptr, align 8
  %4 = alloca ptr, align 8
  store ptr %0, ptr %3, align 8
  store ptr %1, ptr %4, align 8
  %5 = load ptr, ptr %3, align 8
  %6 = load ptr, ptr %4, align 8
  %7 = call noundef i64 @_ZNKSt7__cxx1112basic_stringIcSt11char_traitsIcESaIcEE6lengthEv(ptr noundef nonnull align 8 dereferenceable(32) %6) #20
  %8 = icmp ugt i64 %7, 1023
  br i1 %8, label %9, label %10

9:                                                ; preds = %2
  br label %27

10:                                               ; preds = %2
  %11 = load ptr, ptr %4, align 8
  %12 = call noundef i64 @_ZNKSt7__cxx1112basic_stringIcSt11char_traitsIcESaIcEE6lengthEv(ptr noundef nonnull align 8 dereferenceable(32) %11) #20
  %13 = trunc i64 %12 to i32
  %14 = getelementptr inbounds nuw %struct.aiString, ptr %5, i32 0, i32 0
  store i32 %13, ptr %14, align 4
  %15 = getelementptr inbounds nuw %struct.aiString, ptr %5, i32 0, i32 1
  %16 = getelementptr inbounds [1024 x i8], ptr %15, i64 0, i64 0
  %17 = load ptr, ptr %4, align 8
  %18 = call noundef ptr @_ZNKSt7__cxx1112basic_stringIcSt11char_traitsIcESaIcEE5c_strEv(ptr noundef nonnull align 8 dereferenceable(32) %17) #20
  %19 = getelementptr inbounds nuw %struct.aiString, ptr %5, i32 0, i32 0
  %20 = load i32, ptr %19, align 4
  %21 = zext i32 %20 to i64
  call void @llvm.memcpy.p0.p0.i64(ptr align 4 %16, ptr align 1 %18, i64 %21, i1 false)
  %22 = getelementptr inbounds nuw %struct.aiString, ptr %5, i32 0, i32 1
  %23 = getelementptr inbounds nuw %struct.aiString, ptr %5, i32 0, i32 0
  %24 = load i32, ptr %23, align 4
  %25 = zext i32 %24 to i64
  %26 = getelementptr inbounds nuw [1024 x i8], ptr %22, i64 0, i64 %25
  store i8 0, ptr %26, align 1
  br label %27

27:                                               ; preds = %10, %9
  ret void
}

; Function Attrs: mustprogress nounwind uwtable
define linkonce_odr hidden void @_ZN12aiMatrix4x4tIfEC2Ev(ptr noundef nonnull align 4 dereferenceable(64) %0) unnamed_addr #0 comdat align 2 {
  %2 = alloca ptr, align 8
  store ptr %0, ptr %2, align 8
  %3 = load ptr, ptr %2, align 8
  %4 = getelementptr inbounds nuw %class.aiMatrix4x4t, ptr %3, i32 0, i32 0
  store float 1.000000e+00, ptr %4, align 4
  %5 = getelementptr inbounds nuw %class.aiMatrix4x4t, ptr %3, i32 0, i32 1
  store float 0.000000e+00, ptr %5, align 4
  %6 = getelementptr inbounds nuw %class.aiMatrix4x4t, ptr %3, i32 0, i32 2
  store float 0.000000e+00, ptr %6, align 4
  %7 = getelementptr inbounds nuw %class.aiMatrix4x4t, ptr %3, i32 0, i32 3
  store float 0.000000e+00, ptr %7, align 4
  %8 = getelementptr inbounds nuw %class.aiMatrix4x4t, ptr %3, i32 0, i32 4
  store float 0.000000e+00, ptr %8, align 4
  %9 = getelementptr inbounds nuw %class.aiMatrix4x4t, ptr %3, i32 0, i32 5
  store float 1.000000e+00, ptr %9, align 4
  %10 = getelementptr inbounds nuw %class.aiMatrix4x4t, ptr %3, i32 0, i32 6
  store float 0.000000e+00, ptr %10, align 4
  %11 = getelementptr inbounds nuw %class.aiMatrix4x4t, ptr %3, i32 0, i32 7
  store float 0.000000e+00, ptr %11, align 4
  %12 = getelementptr inbounds nuw %class.aiMatrix4x4t, ptr %3, i32 0, i32 8
  store float 0.000000e+00, ptr %12, align 4
  %13 = getelementptr inbounds nuw %class.aiMatrix4x4t, ptr %3, i32 0, i32 9
  store float 0.000000e+00, ptr %13, align 4
  %14 = getelementptr inbounds nuw %class.aiMatrix4x4t, ptr %3, i32 0, i32 10
  store float 1.000000e+00, ptr %14, align 4
  %15 = getelementptr inbounds nuw %class.aiMatrix4x4t, ptr %3, i32 0, i32 11
  store float 0.000000e+00, ptr %15, align 4
  %16 = getelementptr inbounds nuw %class.aiMatrix4x4t, ptr %3, i32 0, i32 12
  store float 0.000000e+00, ptr %16, align 4
  %17 = getelementptr inbounds nuw %class.aiMatrix4x4t, ptr %3, i32 0, i32 13
  store float 0.000000e+00, ptr %17, align 4
  %18 = getelementptr inbounds nuw %class.aiMatrix4x4t, ptr %3, i32 0, i32 14
  store float 0.000000e+00, ptr %18, align 4
  %19 = getelementptr inbounds nuw %class.aiMatrix4x4t, ptr %3, i32 0, i32 15
  store float 1.000000e+00, ptr %19, align 4
  ret void
}

; Function Attrs: mustprogress nounwind uwtable
define linkonce_odr hidden void @_ZN8aiStringC2Ev(ptr noundef nonnull align 4 dereferenceable(1028) %0) unnamed_addr #0 comdat align 2 {
  %2 = alloca ptr, align 8
  store ptr %0, ptr %2, align 8
  %3 = load ptr, ptr %2, align 8
  %4 = getelementptr inbounds nuw %struct.aiString, ptr %3, i32 0, i32 0
  store i32 0, ptr %4, align 4
  %5 = getelementptr inbounds nuw %struct.aiString, ptr %3, i32 0, i32 1
  call void @llvm.memset.p0.i64(ptr align 4 %5, i8 0, i64 1024, i1 false)
  ret void
}

; Function Attrs: mustprogress nounwind uwtable
define linkonce_odr hidden noundef nonnull align 4 dereferenceable(8) ptr @_ZNKSt6vectorI14aiVertexWeightSaIS0_EEixEm(ptr noundef nonnull align 8 dereferenceable(24) %0, i64 noundef %1) #0 comdat align 2 {
  %3 = alloca ptr, align 8
  %4 = alloca i64, align 8
  store ptr %0, ptr %3, align 8
  store i64 %1, ptr %4, align 8
  %5 = load ptr, ptr %3, align 8
  %6 = getelementptr inbounds nuw %"struct.std::_Vector_base.24", ptr %5, i32 0, i32 0
  %7 = getelementptr inbounds nuw %"struct.std::_Vector_base<aiVertexWeight, std::allocator<aiVertexWeight>>::_Vector_impl_data", ptr %6, i32 0, i32 0
  %8 = load ptr, ptr %7, align 8
  %9 = load i64, ptr %4, align 8
  %10 = getelementptr inbounds nuw %struct.aiVertexWeight, ptr %8, i64 %9
  ret ptr %10
}

; Function Attrs: mustprogress nounwind uwtable
define linkonce_odr hidden void @_ZN14aiVertexWeightC2Ev(ptr noundef nonnull align 4 dereferenceable(8) %0) unnamed_addr #0 comdat align 2 {
  %2 = alloca ptr, align 8
  store ptr %0, ptr %2, align 8
  %3 = load ptr, ptr %2, align 8
  %4 = getelementptr inbounds nuw %struct.aiVertexWeight, ptr %3, i32 0, i32 0
  store i32 0, ptr %4, align 4
  %5 = getelementptr inbounds nuw %struct.aiVertexWeight, ptr %3, i32 0, i32 1
  store float 0.000000e+00, ptr %5, align 4
  ret void
}

; Function Attrs: mustprogress nounwind uwtable
define linkonce_odr hidden noundef i64 @_ZNKSt6vectorI14aiVertexWeightSaIS0_EE4sizeEv(ptr noundef nonnull align 8 dereferenceable(24) %0) #0 comdat align 2 {
  %2 = alloca ptr, align 8
  store ptr %0, ptr %2, align 8
  %3 = load ptr, ptr %2, align 8
  %4 = getelementptr inbounds nuw %"struct.std::_Vector_base.24", ptr %3, i32 0, i32 0
  %5 = getelementptr inbounds nuw %"struct.std::_Vector_base<aiVertexWeight, std::allocator<aiVertexWeight>>::_Vector_impl_data", ptr %4, i32 0, i32 1
  %6 = load ptr, ptr %5, align 8
  %7 = getelementptr inbounds nuw %"struct.std::_Vector_base.24", ptr %3, i32 0, i32 0
  %8 = getelementptr inbounds nuw %"struct.std::_Vector_base<aiVertexWeight, std::allocator<aiVertexWeight>>::_Vector_impl_data", ptr %7, i32 0, i32 0
  %9 = load ptr, ptr %8, align 8
  %10 = ptrtoint ptr %6 to i64
  %11 = ptrtoint ptr %9 to i64
  %12 = sub i64 %10, %11
  %13 = sdiv exact i64 %12, 8
  ret i64 %13
}

; Function Attrs: mustprogress nounwind uwtable
define linkonce_odr hidden noundef zeroext i1 @_ZNKSt6vectorI14aiVertexWeightSaIS0_EE5emptyEv(ptr noundef nonnull align 8 dereferenceable(24) %0) #0 comdat align 2 {
  %2 = alloca ptr, align 8
  %3 = alloca %"class.__gnu_cxx::__normal_iterator.186", align 8
  %4 = alloca %"class.__gnu_cxx::__normal_iterator.186", align 8
  store ptr %0, ptr %2, align 8
  %5 = load ptr, ptr %2, align 8
  call void @llvm.lifetime.start.p0(i64 8, ptr %3) #20
  %6 = call ptr @_ZNKSt6vectorI14aiVertexWeightSaIS0_EE5beginEv(ptr noundef nonnull align 8 dereferenceable(24) %5) #20
  %7 = getelementptr inbounds nuw %"class.__gnu_cxx::__normal_iterator.186", ptr %3, i32 0, i32 0
  store ptr %6, ptr %7, align 8
  call void @llvm.lifetime.start.p0(i64 8, ptr %4) #20
  %8 = call ptr @_ZNKSt6vectorI14aiVertexWeightSaIS0_EE3endEv(ptr noundef nonnull align 8 dereferenceable(24) %5) #20
  %9 = getelementptr inbounds nuw %"class.__gnu_cxx::__normal_iterator.186", ptr %4, i32 0, i32 0
  store ptr %8, ptr %9, align 8
  %10 = call noundef zeroext i1 @_ZN9__gnu_cxxeqIPK14aiVertexWeightSt6vectorIS1_SaIS1_EEEEbRKNS_17__normal_iteratorIT_T0_EESC_(ptr noundef nonnull align 8 dereferenceable(8) %3, ptr noundef nonnull align 8 dereferenceable(8) %4) #20
  call void @llvm.lifetime.end.p0(i64 8, ptr %4) #20
  call void @llvm.lifetime.end.p0(i64 8, ptr %3) #20
  ret i1 %10
}

; Function Attrs: mustprogress uwtable
define linkonce_odr hidden noundef nonnull align 4 dereferenceable(1028) ptr @_ZN8aiStringaSERKNSt7__cxx1112basic_stringIcSt11char_traitsIcESaIcEEE(ptr noundef nonnull align 4 dereferenceable(1028) %0, ptr noundef nonnull align 8 dereferenceable(32) %1) #1 comdat align 2 {
  %3 = alloca ptr, align 8
  %4 = alloca ptr, align 8
  store ptr %0, ptr %3, align 8
  store ptr %1, ptr %4, align 8
  %5 = load ptr, ptr %3, align 8
  %6 = load ptr, ptr %4, align 8
  call void @_ZN8aiString3SetERKNSt7__cxx1112basic_stringIcSt11char_traitsIcESaIcEEE(ptr noundef nonnull align 4 dereferenceable(1028) %5, ptr noundef nonnull align 8 dereferenceable(32) %6)
  ret ptr %5
}

; Function Attrs: mustprogress nounwind uwtable
define linkonce_odr hidden void @_ZN6aiBoneC2Ev(ptr noundef nonnull align 8 dereferenceable(1120) %0) unnamed_addr #0 comdat align 2 {
  %2 = alloca ptr, align 8
  store ptr %0, ptr %2, align 8
  %3 = load ptr, ptr %2, align 8
  %4 = getelementptr inbounds nuw %struct.aiBone, ptr %3, i32 0, i32 0
  call void @_ZN8aiStringC2Ev(ptr noundef nonnull align 4 dereferenceable(1028) %4) #20
  %5 = getelementptr inbounds nuw %struct.aiBone, ptr %3, i32 0, i32 1
  store i32 0, ptr %5, align 4
  %6 = getelementptr inbounds nuw %struct.aiBone, ptr %3, i32 0, i32 2
  store ptr null, ptr %6, align 8
  %7 = getelementptr inbounds nuw %struct.aiBone, ptr %3, i32 0, i32 3
  store ptr null, ptr %7, align 8
  %8 = getelementptr inbounds nuw %struct.aiBone, ptr %3, i32 0, i32 4
  store ptr null, ptr %8, align 8
  %9 = getelementptr inbounds nuw %struct.aiBone, ptr %3, i32 0, i32 5
  call void @_ZN12aiMatrix4x4tIfEC2Ev(ptr noundef nonnull align 4 dereferenceable(64) %9) #20
  ret void
}

; Function Attrs: mustprogress uwtable
define hidden noundef ptr @_ZN6Assimp4Ogre4Bone19ConvertToAssimpBoneEPNS0_8SkeletonERKSt6vectorI14aiVertexWeightSaIS5_EE(ptr noundef nonnull align 8 dereferenceable(248) %0, ptr noundef %1, ptr noundef nonnull align 8 dereferenceable(24) %2) #1 align 2 {
  %4 = alloca ptr, align 8
  %5 = alloca ptr, align 8
  %6 = alloca ptr, align 8
  %7 = alloca ptr, align 8
  store ptr %0, ptr %4, align 8
  store ptr %1, ptr %5, align 8
  store ptr %2, ptr %6, align 8
  %8 = load ptr, ptr %4, align 8
  call void @llvm.lifetime.start.p0(i64 8, ptr %7) #20
  %9 = call noalias noundef nonnull ptr @_Znwm(i64 noundef 1120) #24
  call void @_ZN6aiBoneC2Ev(ptr noundef nonnull align 8 dereferenceable(1120) %9) #20
  store ptr %9, ptr %7, align 8
  %10 = getelementptr inbounds nuw %"class.Assimp::Ogre::Bone", ptr %8, i32 0, i32 1
  %11 = load ptr, ptr %7, align 8
  %12 = getelementptr inbounds nuw %struct.aiBone, ptr %11, i32 0, i32 0
  %13 = call noundef nonnull align 4 dereferenceable(1028) ptr @_ZN8aiStringaSERKNSt7__cxx1112basic_stringIcSt11char_traitsIcESaIcEEE(ptr noundef nonnull align 4 dereferenceable(1028) %12, ptr noundef nonnull align 8 dereferenceable(32) %10)
  %14 = getelementptr inbounds nuw %"class.Assimp::Ogre::Bone", ptr %8, i32 0, i32 8
  %15 = load ptr, ptr %7, align 8
  %16 = getelementptr inbounds nuw %struct.aiBone, ptr %15, i32 0, i32 5
  call void @llvm.memcpy.p0.p0.i64(ptr align 8 %16, ptr align 8 %14, i64 64, i1 false)
  %17 = load ptr, ptr %6, align 8
  %18 = call noundef zeroext i1 @_ZNKSt6vectorI14aiVertexWeightSaIS0_EE5emptyEv(ptr noundef nonnull align 8 dereferenceable(24) %17) #20
  br i1 %18, label %50, label %19

19:                                               ; preds = %3
  %20 = load ptr, ptr %6, align 8
  %21 = call noundef i64 @_ZNKSt6vectorI14aiVertexWeightSaIS0_EE4sizeEv(ptr noundef nonnull align 8 dereferenceable(24) %20) #20
  %22 = trunc i64 %21 to i32
  %23 = load ptr, ptr %7, align 8
  %24 = getelementptr inbounds nuw %struct.aiBone, ptr %23, i32 0, i32 1
  store i32 %22, ptr %24, align 4
  %25 = load ptr, ptr %6, align 8
  %26 = call noundef i64 @_ZNKSt6vectorI14aiVertexWeightSaIS0_EE4sizeEv(ptr noundef nonnull align 8 dereferenceable(24) %25) #20
  %27 = call { i64, i1 } @llvm.umul.with.overflow.i64(i64 %26, i64 8)
  %28 = extractvalue { i64, i1 } %27, 1
  %29 = extractvalue { i64, i1 } %27, 0
  %30 = select i1 %28, i64 -1, i64 %29
  %31 = call noalias noundef nonnull ptr @_Znam(i64 noundef %30) #24
  %32 = icmp eq i64 %26, 0
  br i1 %32, label %39, label %33

33:                                               ; preds = %19
  %34 = getelementptr inbounds %struct.aiVertexWeight, ptr %31, i64 %26
  br label %35

35:                                               ; preds = %35, %33
  %36 = phi ptr [ %31, %33 ], [ %37, %35 ]
  call void @_ZN14aiVertexWeightC2Ev(ptr noundef nonnull align 4 dereferenceable(8) %36) #20
  %37 = getelementptr inbounds %struct.aiVertexWeight, ptr %36, i64 1
  %38 = icmp eq ptr %37, %34
  br i1 %38, label %39, label %35

39:                                               ; preds = %19, %35
  %40 = load ptr, ptr %7, align 8
  %41 = getelementptr inbounds nuw %struct.aiBone, ptr %40, i32 0, i32 4
  store ptr %31, ptr %41, align 8
  %42 = load ptr, ptr %7, align 8
  %43 = getelementptr inbounds nuw %struct.aiBone, ptr %42, i32 0, i32 4
  %44 = load ptr, ptr %43, align 8
  %45 = load ptr, ptr %6, align 8
  %46 = call noundef nonnull align 4 dereferenceable(8) ptr @_ZNKSt6vectorI14aiVertexWeightSaIS0_EEixEm(ptr noundef nonnull align 8 dereferenceable(24) %45, i64 noundef 0) #20
  %47 = load ptr, ptr %6, align 8
  %48 = call noundef i64 @_ZNKSt6vectorI14aiVertexWeightSaIS0_EE4sizeEv(ptr noundef nonnull align 8 dereferenceable(24) %47) #20
  %49 = mul i64 %48, 8
  call void @llvm.memcpy.p0.p0.i64(ptr align 4 %44, ptr align 4 %46, i64 %49, i1 false)
  br label %50

50:                                               ; preds = %39, %3
  %51 = load ptr, ptr %7, align 8
  call void @llvm.lifetime.end.p0(i64 8, ptr %7) #20
  ret ptr %51
}