; Function Attrs: mustprogress uwtable
define hidden noalias noundef nonnull ptr @_ZN6Assimp4Ogre4Bone19ConvertToAssimpBoneEPNS0_8SkeletonERKSt6vectorI14aiVertexWeightSaIS5_EE(ptr noundef nonnull readonly align 8 captures(none) dereferenceable(248) %0, ptr noundef readnone captures(none) %1, ptr noundef nonnull readonly align 8 captures(none) dereferenceable(24) %2) local_unnamed_addr #3 align 2 personality ptr @__gxx_personality_v0 {
  %4 = tail call noalias noundef nonnull dereferenceable(1120) ptr @_Znwm(i64 noundef 1120) #33
  %5 = getelementptr inbounds nuw i8, ptr %4, i64 1056
  tail call void @llvm.memset.p0.i64(ptr noundef nonnull align 8 dereferenceable(1120) %4, i8 0, i64 1056, i1 false)
  %6 = getelementptr inbounds nuw i8, ptr %0, i64 16
  %7 = load i64, ptr %6, align 8
  %8 = icmp ugt i64 %7, 1023
  br i1 %8, label %_ZN8aiStringaSERKNSt7__cxx1112basic_stringIcSt11char_traitsIcESaIcEEE.exit, label %9

9:                                                ; preds = %3
  %10 = getelementptr inbounds nuw i8, ptr %0, i64 8
  %11 = trunc nuw i64 %7 to i32
  store i32 %11, ptr %4, align 4
  %12 = getelementptr inbounds nuw i8, ptr %4, i64 4
  %13 = load ptr, ptr %10, align 8
  tail call void @llvm.memcpy.p0.p0.i64(ptr nonnull align 4 %12, ptr align 1 %13, i64 %7, i1 false)
  %14 = getelementptr inbounds nuw [1024 x i8], ptr %12, i64 0, i64 %7
  store i8 0, ptr %14, align 1
  br label %_ZN8aiStringaSERKNSt7__cxx1112basic_stringIcSt11char_traitsIcESaIcEEE.exit

_ZN8aiStringaSERKNSt7__cxx1112basic_stringIcSt11char_traitsIcESaIcEEE.exit: ; preds = %3, %9
  %15 = getelementptr inbounds nuw i8, ptr %0, i64 120
  tail call void @llvm.memcpy.p0.p0.i64(ptr noundef nonnull align 8 dereferenceable(64) %5, ptr noundef nonnull align 8 dereferenceable(64) %15, i64 64, i1 false)
  %16 = load ptr, ptr %2, align 8
  %17 = getelementptr inbounds nuw i8, ptr %2, i64 8
  %18 = load ptr, ptr %17, align 8
  %19 = icmp eq ptr %16, %18
  br i1 %19, label %35, label %20

20:                                               ; preds = %_ZN8aiStringaSERKNSt7__cxx1112basic_stringIcSt11char_traitsIcESaIcEEE.exit
  %21 = ptrtoint ptr %18 to i64
  %22 = ptrtoint ptr %16 to i64
  %23 = sub i64 %21, %22
  %24 = ashr exact i64 %23, 3
  %25 = trunc i64 %24 to i32
  %26 = getelementptr inbounds nuw i8, ptr %4, i64 1028
  store i32 %25, ptr %26, align 4
  %27 = icmp ugt i64 %24, 2305843009213693951
  %28 = select i1 %27, i64 -1, i64 %23
  %29 = tail call noalias noundef nonnull ptr @_Znam(i64 noundef %28) #33
  %30 = add i64 %21, -8
  %31 = sub i64 %30, %22
  %32 = and i64 %31, -8
  %33 = add i64 %32, 8
  tail call void @llvm.memset.p0.i64(ptr nonnull align 4 %29, i8 0, i64 %33, i1 false)
  %34 = getelementptr inbounds nuw i8, ptr %4, i64 1048
  store ptr %29, ptr %34, align 8
  tail call void @llvm.memcpy.p0.p0.i64(ptr nonnull align 4 %29, ptr nonnull align 4 %16, i64 %23, i1 false)
  br label %35

35:                                               ; preds = %20, %_ZN8aiStringaSERKNSt7__cxx1112basic_stringIcSt11char_traitsIcESaIcEEE.exit
  ret ptr %4
}